; Function Attrs: mustprogress nounwind uwtable
define void @_ZN19OpenColorIO_v2_5dev7Context15loadEnvironmentEv(ptr noundef nonnull readonly align 8 captures(none) dereferenceable(8) %0) local_unnamed_addr #6 align 2 personality ptr @__gxx_personality_v0 {
  %2 = load ptr, ptr %0, align 8, !tbaa !61
  %3 = getelementptr inbounds nuw i8, ptr %2, i64 88
  %4 = load i32, ptr %3, align 8, !tbaa !29
  %5 = icmp ne i32 %4, 2
  %6 = getelementptr inbounds nuw i8, ptr %2, i64 96
  invoke void @_ZN19OpenColorIO_v2_5dev15LoadEnvironmentERSt3mapINSt7__cxx1112basic_stringIcSt11char_traitsIcESaIcEEES6_NS_9EnvMapKeyIS6_EESaISt4pairIKS6_S6_EEEb(ptr noundef nonnull align 8 dereferenceable(48) %6, i1 noundef zeroext %5)
          to label %7 unwind label %37

7:                                                ; preds = %1
  %8 = load ptr, ptr %0, align 8, !tbaa !61
  %9 = getelementptr inbounds nuw i8, ptr %8, i64 272
  %10 = tail call noundef i32 @pthread_mutex_lock(ptr noundef nonnull align 8 dereferenceable(40) %9) #27
  %.not.i.i = icmp eq i32 %10, 0
  br i1 %.not.i.i, label %_ZNSt10lock_guardISt5mutexEC2ERS0_.exit, label %11

11:                                               ; preds = %7
  invoke void @_ZSt20__throw_system_errori(i32 noundef %10) #29
          to label %.noexc unwind label %37

.noexc:                                           ; preds = %11
  unreachable

_ZNSt10lock_guardISt5mutexEC2ERS0_.exit:          ; preds = %7
  %12 = load ptr, ptr %0, align 8, !tbaa !61
  %13 = getelementptr inbounds nuw i8, ptr %12, i64 176
  %14 = getelementptr inbounds nuw i8, ptr %12, i64 192
  %15 = load ptr, ptr %14, align 8, !tbaa !57
  invoke void @_ZNSt8_Rb_treeINSt7__cxx1112basic_stringIcSt11char_traitsIcESaIcEEESt4pairIKS5_S6_IS5_St3mapIS5_S5_St4lessIS5_ESaIS6_IS7_S5_EEEEESt10_Select1stISF_ESA_SaISF_EE8_M_eraseEPSt13_Rb_tree_nodeISF_E(ptr noundef nonnull align 8 dereferenceable(48) %13, ptr noundef %15)
          to label %_ZNSt3mapINSt7__cxx1112basic_stringIcSt11char_traitsIcESaIcEEESt4pairIS5_S_IS5_S5_St4lessIS5_ESaIS6_IKS5_S5_EEEES8_SaIS6_IS9_SD_EEE5clearEv.exit.i unwind label %16

16:                                               ; preds = %_ZNSt10lock_guardISt5mutexEC2ERS0_.exit
  %17 = landingpad { ptr, i32 }
          catch ptr null
  %18 = extractvalue { ptr, i32 } %17, 0
  tail call void @__clang_call_terminate(ptr %18) #30
  unreachable

_ZNSt3mapINSt7__cxx1112basic_stringIcSt11char_traitsIcESaIcEEESt4pairIS5_S_IS5_S5_St4lessIS5_ESaIS6_IKS5_S5_EEEES8_SaIS6_IS9_SD_EEE5clearEv.exit.i: ; preds = %_ZNSt10lock_guardISt5mutexEC2ERS0_.exit
  %19 = getelementptr inbounds nuw i8, ptr %12, i64 184
  store ptr null, ptr %14, align 8, !tbaa !57
  %20 = getelementptr inbounds nuw i8, ptr %12, i64 200
  store ptr %19, ptr %20, align 8, !tbaa !58
  %21 = getelementptr inbounds nuw i8, ptr %12, i64 208
  store ptr %19, ptr %21, align 8, !tbaa !59
  %22 = getelementptr inbounds nuw i8, ptr %12, i64 216
  store i64 0, ptr %22, align 8, !tbaa !60
  %23 = getelementptr inbounds nuw i8, ptr %12, i64 224
  %24 = getelementptr inbounds nuw i8, ptr %12, i64 240
  %25 = load ptr, ptr %24, align 8, !tbaa !57
  invoke void @_ZNSt8_Rb_treeINSt7__cxx1112basic_stringIcSt11char_traitsIcESaIcEEESt4pairIKS5_S6_IS5_St3mapIS5_S5_St4lessIS5_ESaIS6_IS7_S5_EEEEESt10_Select1stISF_ESA_SaISF_EE8_M_eraseEPSt13_Rb_tree_nodeISF_E(ptr noundef nonnull align 8 dereferenceable(48) %23, ptr noundef %25)
          to label %_ZN19OpenColorIO_v2_5dev7Context4Impl11clearCachesEv.exit unwind label %26

26:                                               ; preds = %_ZNSt3mapINSt7__cxx1112basic_stringIcSt11char_traitsIcESaIcEEESt4pairIS5_S_IS5_S5_St4lessIS5_ESaIS6_IKS5_S5_EEEES8_SaIS6_IS9_SD_EEE5clearEv.exit.i
  %27 = landingpad { ptr, i32 }
          catch ptr null
  %28 = extractvalue { ptr, i32 } %27, 0
  tail call void @__clang_call_terminate(ptr %28) #30
  unreachable

_ZN19OpenColorIO_v2_5dev7Context4Impl11clearCachesEv.exit: ; preds = %_ZNSt3mapINSt7__cxx1112basic_stringIcSt11char_traitsIcESaIcEEESt4pairIS5_S_IS5_S5_St4lessIS5_ESaIS6_IKS5_S5_EEEES8_SaIS6_IS9_SD_EEE5clearEv.exit.i
  %29 = getelementptr inbounds nuw i8, ptr %12, i64 232
  store ptr null, ptr %24, align 8, !tbaa !57
  %30 = getelementptr inbounds nuw i8, ptr %12, i64 248
  store ptr %29, ptr %30, align 8, !tbaa !58
  %31 = getelementptr inbounds nuw i8, ptr %12, i64 256
  store ptr %29, ptr %31, align 8, !tbaa !59
  %32 = getelementptr inbounds nuw i8, ptr %12, i64 264
  store i64 0, ptr %32, align 8, !tbaa !60
  %33 = getelementptr inbounds nuw i8, ptr %12, i64 144
  %34 = getelementptr inbounds nuw i8, ptr %12, i64 152
  store i64 0, ptr %34, align 8, !tbaa !25
  %35 = load ptr, ptr %33, align 8, !tbaa !66
  store i8 0, ptr %35, align 1, !tbaa !28
  %36 = tail call noundef i32 @pthread_mutex_unlock(ptr noundef nonnull align 8 dereferenceable(40) %9) #27
  ret void

37:                                               ; preds = %11, %1
  %38 = landingpad { ptr, i32 }
          catch ptr null
  %39 = extractvalue { ptr, i32 } %38, 0
  tail call void @__clang_call_terminate(ptr %39) #30
  unreachable
}